target datalayout = "e-m:e-p270:32:32-p271:32:32-p272:64:64-i64:64-i128:128-f80:128-n8:16:32:64-S128"
target triple = "x86_64-pc-linux-gnu"

; Function Attrs: inlinehint mustprogress nounwind uwtable
define linkonce_odr noundef nonnull align 4 dereferenceable(4) ptr @_ZSt3maxIiERKT_S2_S2_(ptr noundef nonnull align 4 dereferenceable(4) %0, ptr noundef nonnull align 4 dereferenceable(4) %1) #3 comdat {
  %3 = alloca ptr, align 8
  %4 = alloca ptr, align 8
  %5 = alloca ptr, align 8
  store ptr %0, ptr %4, align 8, !tbaa !31
  store ptr %1, ptr %5, align 8, !tbaa !31
  %6 = load ptr, ptr %4, align 8, !tbaa !31
  %7 = load i32, ptr %6, align 4, !tbaa !10
  %8 = load ptr, ptr %5, align 8, !tbaa !31
  %9 = load i32, ptr %8, align 4, !tbaa !10
  %10 = icmp slt i32 %7, %9
  br i1 %10, label %11, label %13

11:                                               ; preds = %2
  %12 = load ptr, ptr %5, align 8, !tbaa !31
  store ptr %12, ptr %3, align 8
  br label %15

13:                                               ; preds = %2
  %14 = load ptr, ptr %4, align 8, !tbaa !31
  store ptr %14, ptr %3, align 8
  br label %15

15:                                               ; preds = %13, %11
  %16 = load ptr, ptr %3, align 8
  ret ptr %16
}

; Function Attrs: inlinehint mustprogress nounwind uwtable
define linkonce_odr noundef nonnull align 4 dereferenceable(4) ptr @_ZSt3minIiERKT_S2_S2_(ptr noundef nonnull align 4 dereferenceable(4) %0, ptr noundef nonnull align 4 dereferenceable(4) %1) #3 comdat {
  %3 = alloca ptr, align 8
  %4 = alloca ptr, align 8
  %5 = alloca ptr, align 8
  store ptr %0, ptr %4, align 8, !tbaa !31
  store ptr %1, ptr %5, align 8, !tbaa !31
  %6 = load ptr, ptr %5, align 8, !tbaa !31
  %7 = load i32, ptr %6, align 4, !tbaa !10
  %8 = load ptr, ptr %4, align 8, !tbaa !31
  %9 = load i32, ptr %8, align 4, !tbaa !10
  %10 = icmp slt i32 %7, %9
  br i1 %10, label %11, label %13

11:                                               ; preds = %2
  %12 = load ptr, ptr %5, align 8, !tbaa !31
  store ptr %12, ptr %3, align 8
  br label %15

13:                                               ; preds = %2
  %14 = load ptr, ptr %4, align 8, !tbaa !31
  store ptr %14, ptr %3, align 8
  br label %15

15:                                               ; preds = %13, %11
  %16 = load ptr, ptr %3, align 8
  ret ptr %16
}

; Function Attrs: mustprogress nounwind uwtable
define internal noundef i32 @_ZN12_GLOBAL__N_111cornerScoreILi8EEEiPKhPKii(ptr noundef %0, ptr noundef %1, i32 noundef %2) #1 {
  %4 = alloca ptr, align 8
  %5 = alloca ptr, align 8
  %6 = alloca i32, align 4
  %7 = alloca i32, align 4
  %8 = alloca i32, align 4
  %9 = alloca i32, align 4
  %10 = alloca i32, align 4
  %11 = alloca [13 x i16], align 16
  %12 = alloca i32, align 4
  %13 = alloca i32, align 4
  %14 = alloca i32, align 4
  %15 = alloca i32, align 4
  %16 = alloca i32, align 4
  %17 = alloca i32, align 4
  %18 = alloca i32, align 4
  %19 = alloca i32, align 4
  %20 = alloca i32, align 4
  %21 = alloca i32, align 4
  %22 = alloca i32, align 4
  %23 = alloca i32, align 4
  %24 = alloca i32, align 4
  %25 = alloca i32, align 4
  %26 = alloca i32, align 4
  %27 = alloca i32, align 4
  %28 = alloca i32, align 4
  store ptr %0, ptr %4, align 8, !tbaa !30
  store ptr %1, ptr %5, align 8, !tbaa !31
  store i32 %2, ptr %6, align 4, !tbaa !10
  call void @llvm.lifetime.start.p0(i64 4, ptr %7) #17
  store i32 4, ptr %7, align 4, !tbaa !10
  call void @llvm.lifetime.start.p0(i64 4, ptr %8) #17
  store i32 13, ptr %8, align 4, !tbaa !10
  call void @llvm.lifetime.start.p0(i64 4, ptr %9) #17
  call void @llvm.lifetime.start.p0(i64 4, ptr %10) #17
  %29 = load ptr, ptr %4, align 8, !tbaa !30
  %30 = getelementptr inbounds i8, ptr %29, i64 0
  %31 = load i8, ptr %30, align 1, !tbaa !18
  %32 = zext i8 %31 to i32
  store i32 %32, ptr %10, align 4, !tbaa !10
  call void @llvm.lifetime.start.p0(i64 26, ptr %11) #17
  store i32 0, ptr %9, align 4, !tbaa !10
  br label %33

33:                                               ; preds = %53, %3
  %34 = load i32, ptr %9, align 4, !tbaa !10
  %35 = icmp slt i32 %34, 13
  br i1 %35, label %36, label %56

36:                                               ; preds = %33
  %37 = load i32, ptr %10, align 4, !tbaa !10
  %38 = load ptr, ptr %4, align 8, !tbaa !30
  %39 = load ptr, ptr %5, align 8, !tbaa !31
  %40 = load i32, ptr %9, align 4, !tbaa !10
  %41 = sext i32 %40 to i64
  %42 = getelementptr inbounds i32, ptr %39, i64 %41
  %43 = load i32, ptr %42, align 4, !tbaa !10
  %44 = sext i32 %43 to i64
  %45 = getelementptr inbounds i8, ptr %38, i64 %44
  %46 = load i8, ptr %45, align 1, !tbaa !18
  %47 = zext i8 %46 to i32
  %48 = sub nsw i32 %37, %47
  %49 = trunc i32 %48 to i16
  %50 = load i32, ptr %9, align 4, !tbaa !10
  %51 = sext i32 %50 to i64
  %52 = getelementptr inbounds [13 x i16], ptr %11, i64 0, i64 %51
  store i16 %49, ptr %52, align 2, !tbaa !87
  br label %53

53:                                               ; preds = %36
  %54 = load i32, ptr %9, align 4, !tbaa !10
  %55 = add nsw i32 %54, 1
  store i32 %55, ptr %9, align 4, !tbaa !10
  br label %33, !llvm.loop !89

56:                                               ; preds = %33
  call void @llvm.lifetime.start.p0(i64 4, ptr %12) #17
  %57 = load i32, ptr %6, align 4, !tbaa !10
  store i32 %57, ptr %12, align 4, !tbaa !10
  store i32 0, ptr %9, align 4, !tbaa !10
  br label %58

58:                                               ; preds = %117, %56
  %59 = load i32, ptr %9, align 4, !tbaa !10
  %60 = icmp slt i32 %59, 8
  br i1 %60, label %61, label %120

61:                                               ; preds = %58
  call void @llvm.lifetime.start.p0(i64 4, ptr %13) #17
  call void @llvm.lifetime.start.p0(i64 4, ptr %14) #17
  %62 = load i32, ptr %9, align 4, !tbaa !10
  %63 = add nsw i32 %62, 1
  %64 = sext i32 %63 to i64
  %65 = getelementptr inbounds [13 x i16], ptr %11, i64 0, i64 %64
  %66 = load i16, ptr %65, align 2, !tbaa !87
  %67 = sext i16 %66 to i32
  store i32 %67, ptr %14, align 4, !tbaa !10
  call void @llvm.lifetime.start.p0(i64 4, ptr %15) #17
  %68 = load i32, ptr %9, align 4, !tbaa !10
  %69 = add nsw i32 %68, 2
  %70 = sext i32 %69 to i64
  %71 = getelementptr inbounds [13 x i16], ptr %11, i64 0, i64 %70
  %72 = load i16, ptr %71, align 2, !tbaa !87
  %73 = sext i16 %72 to i32
  store i32 %73, ptr %15, align 4, !tbaa !10
  %74 = call noundef nonnull align 4 dereferenceable(4) ptr @_ZSt3minIiERKT_S2_S2_(ptr noundef nonnull align 4 dereferenceable(4) %14, ptr noundef nonnull align 4 dereferenceable(4) %15)
  %75 = load i32, ptr %74, align 4, !tbaa !10
  call void @llvm.lifetime.end.p0(i64 4, ptr %15) #17
  call void @llvm.lifetime.end.p0(i64 4, ptr %14) #17
  store i32 %75, ptr %13, align 4, !tbaa !10
  %76 = load i32, ptr %13, align 4, !tbaa !10
  %77 = load i32, ptr %12, align 4, !tbaa !10
  %78 = icmp sle i32 %76, %77
  br i1 %78, label %79, label %80

79:                                               ; preds = %61
  store i32 7, ptr %16, align 4
  br label %114

80:                                               ; preds = %61
  call void @llvm.lifetime.start.p0(i64 4, ptr %17) #17
  %81 = load i32, ptr %9, align 4, !tbaa !10
  %82 = add nsw i32 %81, 3
  %83 = sext i32 %82 to i64
  %84 = getelementptr inbounds [13 x i16], ptr %11, i64 0, i64 %83
  %85 = load i16, ptr %84, align 2, !tbaa !87
  %86 = sext i16 %85 to i32
  store i32 %86, ptr %17, align 4, !tbaa !10
  %87 = call noundef nonnull align 4 dereferenceable(4) ptr @_ZSt3minIiERKT_S2_S2_(ptr noundef nonnull align 4 dereferenceable(4) %13, ptr noundef nonnull align 4 dereferenceable(4) %17)
  %88 = load i32, ptr %87, align 4, !tbaa !10
  store i32 %88, ptr %13, align 4, !tbaa !10
  call void @llvm.lifetime.end.p0(i64 4, ptr %17) #17
  call void @llvm.lifetime.start.p0(i64 4, ptr %18) #17
  %89 = load i32, ptr %9, align 4, !tbaa !10
  %90 = add nsw i32 %89, 4
  %91 = sext i32 %90 to i64
  %92 = getelementptr inbounds [13 x i16], ptr %11, i64 0, i64 %91
  %93 = load i16, ptr %92, align 2, !tbaa !87
  %94 = sext i16 %93 to i32
  store i32 %94, ptr %18, align 4, !tbaa !10
  %95 = call noundef nonnull align 4 dereferenceable(4) ptr @_ZSt3minIiERKT_S2_S2_(ptr noundef nonnull align 4 dereferenceable(4) %13, ptr noundef nonnull align 4 dereferenceable(4) %18)
  %96 = load i32, ptr %95, align 4, !tbaa !10
  store i32 %96, ptr %13, align 4, !tbaa !10
  call void @llvm.lifetime.end.p0(i64 4, ptr %18) #17
  call void @llvm.lifetime.start.p0(i64 4, ptr %19) #17
  %97 = load i32, ptr %9, align 4, !tbaa !10
  %98 = sext i32 %97 to i64
  %99 = getelementptr inbounds [13 x i16], ptr %11, i64 0, i64 %98
  %100 = load i16, ptr %99, align 2, !tbaa !87
  %101 = sext i16 %100 to i32
  store i32 %101, ptr %19, align 4, !tbaa !10
  %102 = call noundef nonnull align 4 dereferenceable(4) ptr @_ZSt3minIiERKT_S2_S2_(ptr noundef nonnull align 4 dereferenceable(4) %13, ptr noundef nonnull align 4 dereferenceable(4) %19)
  %103 = call noundef nonnull align 4 dereferenceable(4) ptr @_ZSt3maxIiERKT_S2_S2_(ptr noundef nonnull align 4 dereferenceable(4) %12, ptr noundef nonnull align 4 dereferenceable(4) %102)
  %104 = load i32, ptr %103, align 4, !tbaa !10
  store i32 %104, ptr %12, align 4, !tbaa !10
  call void @llvm.lifetime.end.p0(i64 4, ptr %19) #17
  call void @llvm.lifetime.start.p0(i64 4, ptr %20) #17
  %105 = load i32, ptr %9, align 4, !tbaa !10
  %106 = add nsw i32 %105, 5
  %107 = sext i32 %106 to i64
  %108 = getelementptr inbounds [13 x i16], ptr %11, i64 0, i64 %107
  %109 = load i16, ptr %108, align 2, !tbaa !87
  %110 = sext i16 %109 to i32
  store i32 %110, ptr %20, align 4, !tbaa !10
  %111 = call noundef nonnull align 4 dereferenceable(4) ptr @_ZSt3minIiERKT_S2_S2_(ptr noundef nonnull align 4 dereferenceable(4) %13, ptr noundef nonnull align 4 dereferenceable(4) %20)
  %112 = call noundef nonnull align 4 dereferenceable(4) ptr @_ZSt3maxIiERKT_S2_S2_(ptr noundef nonnull align 4 dereferenceable(4) %12, ptr noundef nonnull align 4 dereferenceable(4) %111)
  %113 = load i32, ptr %112, align 4, !tbaa !10
  store i32 %113, ptr %12, align 4, !tbaa !10
  call void @llvm.lifetime.end.p0(i64 4, ptr %20) #17
  store i32 0, ptr %16, align 4
  br label %114

114:                                              ; preds = %80, %79
  call void @llvm.lifetime.end.p0(i64 4, ptr %13) #17
  %115 = load i32, ptr %16, align 4
  switch i32 %115, label %190 [
    i32 0, label %116
    i32 7, label %117
  ]

116:                                              ; preds = %114
  br label %117

117:                                              ; preds = %116, %114
  %118 = load i32, ptr %9, align 4, !tbaa !10
  %119 = add nsw i32 %118, 2
  store i32 %119, ptr %9, align 4, !tbaa !10
  br label %58, !llvm.loop !90

120:                                              ; preds = %58
  call void @llvm.lifetime.start.p0(i64 4, ptr %21) #17
  %121 = load i32, ptr %12, align 4, !tbaa !10
  %122 = sub nsw i32 0, %121
  store i32 %122, ptr %21, align 4, !tbaa !10
  store i32 0, ptr %9, align 4, !tbaa !10
  br label %123

123:                                              ; preds = %182, %120
  %124 = load i32, ptr %9, align 4, !tbaa !10
  %125 = icmp slt i32 %124, 8
  br i1 %125, label %126, label %185

126:                                              ; preds = %123
  call void @llvm.lifetime.start.p0(i64 4, ptr %22) #17
  call void @llvm.lifetime.start.p0(i64 4, ptr %23) #17
  %127 = load i32, ptr %9, align 4, !tbaa !10
  %128 = add nsw i32 %127, 1
  %129 = sext i32 %128 to i64
  %130 = getelementptr inbounds [13 x i16], ptr %11, i64 0, i64 %129
  %131 = load i16, ptr %130, align 2, !tbaa !87
  %132 = sext i16 %131 to i32
  store i32 %132, ptr %23, align 4, !tbaa !10
  call void @llvm.lifetime.start.p0(i64 4, ptr %24) #17
  %133 = load i32, ptr %9, align 4, !tbaa !10
  %134 = add nsw i32 %133, 2
  %135 = sext i32 %134 to i64
  %136 = getelementptr inbounds [13 x i16], ptr %11, i64 0, i64 %135
  %137 = load i16, ptr %136, align 2, !tbaa !87
  %138 = sext i16 %137 to i32
  store i32 %138, ptr %24, align 4, !tbaa !10
  %139 = call noundef nonnull align 4 dereferenceable(4) ptr @_ZSt3maxIiERKT_S2_S2_(ptr noundef nonnull align 4 dereferenceable(4) %23, ptr noundef nonnull align 4 dereferenceable(4) %24)
  %140 = load i32, ptr %139, align 4, !tbaa !10
  call void @llvm.lifetime.end.p0(i64 4, ptr %24) #17
  call void @llvm.lifetime.end.p0(i64 4, ptr %23) #17
  store i32 %140, ptr %22, align 4, !tbaa !10
  call void @llvm.lifetime.start.p0(i64 4, ptr %25) #17
  %141 = load i32, ptr %9, align 4, !tbaa !10
  %142 = add nsw i32 %141, 3
  %143 = sext i32 %142 to i64
  %144 = getelementptr inbounds [13 x i16], ptr %11, i64 0, i64 %143
  %145 = load i16, ptr %144, align 2, !tbaa !87
  %146 = sext i16 %145 to i32
  store i32 %146, ptr %25, align 4, !tbaa !10
  %147 = call noundef nonnull align 4 dereferenceable(4) ptr @_ZSt3maxIiERKT_S2_S2_(ptr noundef nonnull align 4 dereferenceable(4) %22, ptr noundef nonnull align 4 dereferenceable(4) %25)
  %148 = load i32, ptr %147, align 4, !tbaa !10
  store i32 %148, ptr %22, align 4, !tbaa !10
  call void @llvm.lifetime.end.p0(i64 4, ptr %25) #17
  %149 = load i32, ptr %22, align 4, !tbaa !10
  %150 = load i32, ptr %21, align 4, !tbaa !10
  %151 = icmp sge i32 %149, %150
  br i1 %151, label %152, label %153

152:                                              ; preds = %126
  store i32 10, ptr %16, align 4
  br label %179

153:                                              ; preds = %126
  call void @llvm.lifetime.start.p0(i64 4, ptr %26) #17
  %154 = load i32, ptr %9, align 4, !tbaa !10
  %155 = add nsw i32 %154, 4
  %156 = sext i32 %155 to i64
  %157 = getelementptr inbounds [13 x i16], ptr %11, i64 0, i64 %156
  %158 = load i16, ptr %157, align 2, !tbaa !87
  %159 = sext i16 %158 to i32
  store i32 %159, ptr %26, align 4, !tbaa !10
  %160 = call noundef nonnull align 4 dereferenceable(4) ptr @_ZSt3maxIiERKT_S2_S2_(ptr noundef nonnull align 4 dereferenceable(4) %22, ptr noundef nonnull align 4 dereferenceable(4) %26)
  %161 = load i32, ptr %160, align 4, !tbaa !10
  store i32 %161, ptr %22, align 4, !tbaa !10
  call void @llvm.lifetime.end.p0(i64 4, ptr %26) #17
  call void @llvm.lifetime.start.p0(i64 4, ptr %27) #17
  %162 = load i32, ptr %9, align 4, !tbaa !10
  %163 = sext i32 %162 to i64
  %164 = getelementptr inbounds [13 x i16], ptr %11, i64 0, i64 %163
  %165 = load i16, ptr %164, align 2, !tbaa !87
  %166 = sext i16 %165 to i32
  store i32 %166, ptr %27, align 4, !tbaa !10
  %167 = call noundef nonnull align 4 dereferenceable(4) ptr @_ZSt3maxIiERKT_S2_S2_(ptr noundef nonnull align 4 dereferenceable(4) %22, ptr noundef nonnull align 4 dereferenceable(4) %27)
  %168 = call noundef nonnull align 4 dereferenceable(4) ptr @_ZSt3minIiERKT_S2_S2_(ptr noundef nonnull align 4 dereferenceable(4) %21, ptr noundef nonnull align 4 dereferenceable(4) %167)
  %169 = load i32, ptr %168, align 4, !tbaa !10
  store i32 %169, ptr %21, align 4, !tbaa !10
  call void @llvm.lifetime.end.p0(i64 4, ptr %27) #17
  call void @llvm.lifetime.start.p0(i64 4, ptr %28) #17
  %170 = load i32, ptr %9, align 4, !tbaa !10
  %171 = add nsw i32 %170, 5
  %172 = sext i32 %171 to i64
  %173 = getelementptr inbounds [13 x i16], ptr %11, i64 0, i64 %172
  %174 = load i16, ptr %173, align 2, !tbaa !87
  %175 = sext i16 %174 to i32
  store i32 %175, ptr %28, align 4, !tbaa !10
  %176 = call noundef nonnull align 4 dereferenceable(4) ptr @_ZSt3maxIiERKT_S2_S2_(ptr noundef nonnull align 4 dereferenceable(4) %22, ptr noundef nonnull align 4 dereferenceable(4) %28)
  %177 = call noundef nonnull align 4 dereferenceable(4) ptr @_ZSt3minIiERKT_S2_S2_(ptr noundef nonnull align 4 dereferenceable(4) %21, ptr noundef nonnull align 4 dereferenceable(4) %176)
  %178 = load i32, ptr %177, align 4, !tbaa !10
  store i32 %178, ptr %21, align 4, !tbaa !10
  call void @llvm.lifetime.end.p0(i64 4, ptr %28) #17
  store i32 0, ptr %16, align 4
  br label %179

179:                                              ; preds = %153, %152
  call void @llvm.lifetime.end.p0(i64 4, ptr %22) #17
  %180 = load i32, ptr %16, align 4
  switch i32 %180, label %190 [
    i32 0, label %181
    i32 10, label %182
  ]

181:                                              ; preds = %179
  br label %182

182:                                              ; preds = %181, %179
  %183 = load i32, ptr %9, align 4, !tbaa !10
  %184 = add nsw i32 %183, 2
  store i32 %184, ptr %9, align 4, !tbaa !10
  br label %123, !llvm.loop !91

185:                                              ; preds = %123
  %186 = load i32, ptr %21, align 4, !tbaa !10
  %187 = sub nsw i32 0, %186
  %188 = sub nsw i32 %187, 1
  store i32 %188, ptr %6, align 4, !tbaa !10
  %189 = load i32, ptr %6, align 4, !tbaa !10
  store i32 1, ptr %16, align 4
  call void @llvm.lifetime.end.p0(i64 4, ptr %21) #17
  call void @llvm.lifetime.end.p0(i64 4, ptr %12) #17
  call void @llvm.lifetime.end.p0(i64 26, ptr %11) #17
  call void @llvm.lifetime.end.p0(i64 4, ptr %10) #17
  call void @llvm.lifetime.end.p0(i64 4, ptr %9) #17
  call void @llvm.lifetime.end.p0(i64 4, ptr %8) #17
  call void @llvm.lifetime.end.p0(i64 4, ptr %7) #17
  ret i32 %189

190:                                              ; preds = %179, %114
  unreachable
}