; Function Attrs: mustprogress nofree norecurse nosync nounwind willreturn memory(argmem: read) uwtable
define internal fastcc noundef range(i32 -32768, 2147483647) i32 @_ZN12_GLOBAL__N_111cornerScoreILi8EEEiPKhPKii(ptr noundef readonly captures(none) %0, ptr noundef nonnull readonly captures(none) %1, i32 noundef %2) unnamed_addr #4 {
  %4 = alloca [13 x i16], align 16
  %5 = load i8, ptr %0, align 1, !tbaa !21
  %6 = zext i8 %5 to i16
  call void @llvm.lifetime.start.p0(i64 26, ptr nonnull %4) #11
  br label %7

7:                                                ; preds = %3, %7
  %indvars.iv = phi i64 [ 0, %3 ], [ %indvars.iv.next, %7 ]
  %8 = getelementptr inbounds nuw i32, ptr %1, i64 %indvars.iv
  %9 = load i32, ptr %8, align 4, !tbaa !17
  %10 = sext i32 %9 to i64
  %11 = getelementptr inbounds i8, ptr %0, i64 %10
  %12 = load i8, ptr %11, align 1, !tbaa !21
  %13 = zext i8 %12 to i16
  %14 = sub nsw i16 %6, %13
  %15 = getelementptr inbounds nuw [13 x i16], ptr %4, i64 0, i64 %indvars.iv
  store i16 %14, ptr %15, align 2, !tbaa !66
  %indvars.iv.next = add nuw nsw i64 %indvars.iv, 1
  %exitcond.not = icmp eq i64 %indvars.iv.next, 13
  br i1 %exitcond.not, label %.preheader, label %7, !llvm.loop !68

.preheader:                                       ; preds = %7, %39
  %indvars.iv127 = phi i64 [ %indvars.iv.next128, %39 ], [ 0, %7 ]
  %.0113122 = phi i32 [ %.1114, %39 ], [ %2, %7 ]
  %16 = or disjoint i64 %indvars.iv127, 1
  %17 = getelementptr inbounds nuw [13 x i16], ptr %4, i64 0, i64 %16
  %18 = load i16, ptr %17, align 2, !tbaa !66
  %indvars.iv.next128 = add nuw nsw i64 %indvars.iv127, 2
  %19 = getelementptr inbounds nuw [13 x i16], ptr %4, i64 0, i64 %indvars.iv.next128
  %20 = load i16, ptr %19, align 4, !tbaa !66
  %21 = tail call i16 @llvm.smin.i16(i16 %20, i16 %18)
  %.sroa.speculated88 = sext i16 %21 to i32
  %.not25 = icmp slt i32 %.0113122, %.sroa.speculated88
  br i1 %.not25, label %22, label %39

22:                                               ; preds = %.preheader
  %23 = add nuw nsw i64 %indvars.iv127, 3
  %24 = getelementptr inbounds nuw [13 x i16], ptr %4, i64 0, i64 %23
  %25 = load i16, ptr %24, align 2, !tbaa !66
  %26 = tail call i16 @llvm.smin.i16(i16 %25, i16 %21)
  %27 = add nuw nsw i64 %indvars.iv127, 4
  %28 = getelementptr inbounds nuw [13 x i16], ptr %4, i64 0, i64 %27
  %29 = load i16, ptr %28, align 4, !tbaa !66
  %30 = tail call i16 @llvm.smin.i16(i16 %29, i16 %26)
  %31 = getelementptr inbounds nuw [13 x i16], ptr %4, i64 0, i64 %indvars.iv127
  %32 = load i16, ptr %31, align 4, !tbaa !66
  %33 = tail call i16 @llvm.smin.i16(i16 %32, i16 %30)
  %34 = sext i16 %33 to i32
  %.sroa.speculated106 = tail call i32 @llvm.smax.i32(i32 %.0113122, i32 %34)
  %35 = add nuw nsw i64 %indvars.iv127, 5
  %36 = getelementptr inbounds nuw [13 x i16], ptr %4, i64 0, i64 %35
  %37 = load i16, ptr %36, align 2, !tbaa !66
  %.v = tail call i16 @llvm.smin.i16(i16 %37, i16 %30)
  %38 = sext i16 %.v to i32
  %.sroa.speculated103 = tail call i32 @llvm.smax.i32(i32 %.sroa.speculated106, i32 %38)
  br label %39

39:                                               ; preds = %.preheader, %22
  %.1114 = phi i32 [ %.sroa.speculated103, %22 ], [ %.0113122, %.preheader ]
  %40 = icmp samesign ult i64 %indvars.iv127, 6
  br i1 %40, label %.preheader, label %41, !llvm.loop !69

41:                                               ; preds = %39
  %42 = sub nsw i32 0, %.1114
  br label %43

43:                                               ; preds = %41, %67
  %indvars.iv130 = phi i64 [ 0, %41 ], [ %indvars.iv.next131, %67 ]
  %.0115124 = phi i32 [ %42, %41 ], [ %.1116, %67 ]
  %44 = or disjoint i64 %indvars.iv130, 1
  %45 = getelementptr inbounds nuw [13 x i16], ptr %4, i64 0, i64 %44
  %46 = load i16, ptr %45, align 2, !tbaa !66
  %indvars.iv.next131 = add nuw nsw i64 %indvars.iv130, 2
  %47 = getelementptr inbounds nuw [13 x i16], ptr %4, i64 0, i64 %indvars.iv.next131
  %48 = load i16, ptr %47, align 4, !tbaa !66
  %49 = tail call i16 @llvm.smax.i16(i16 %46, i16 %48)
  %50 = add nuw nsw i64 %indvars.iv130, 3
  %51 = getelementptr inbounds nuw [13 x i16], ptr %4, i64 0, i64 %50
  %52 = load i16, ptr %51, align 2, !tbaa !66
  %53 = tail call i16 @llvm.smax.i16(i16 %49, i16 %52)
  %.sroa.speculated44 = sext i16 %53 to i32
  %.not = icmp sgt i32 %.0115124, %.sroa.speculated44
  br i1 %.not, label %54, label %67

54:                                               ; preds = %43
  %55 = add nuw nsw i64 %indvars.iv130, 4
  %56 = getelementptr inbounds nuw [13 x i16], ptr %4, i64 0, i64 %55
  %57 = load i16, ptr %56, align 4, !tbaa !66
  %58 = tail call i16 @llvm.smax.i16(i16 %53, i16 %57)
  %59 = getelementptr inbounds nuw [13 x i16], ptr %4, i64 0, i64 %indvars.iv130
  %60 = load i16, ptr %59, align 4, !tbaa !66
  %61 = tail call i16 @llvm.smax.i16(i16 %58, i16 %60)
  %62 = sext i16 %61 to i32
  %.sroa.speculated65 = tail call i32 @llvm.smin.i32(i32 %62, i32 %.0115124)
  %63 = add nuw nsw i64 %indvars.iv130, 5
  %64 = getelementptr inbounds nuw [13 x i16], ptr %4, i64 0, i64 %63
  %65 = load i16, ptr %64, align 2, !tbaa !66
  %.v134 = tail call i16 @llvm.smax.i16(i16 %58, i16 %65)
  %66 = sext i16 %.v134 to i32
  %.sroa.speculated62 = tail call i32 @llvm.smin.i32(i32 %66, i32 %.sroa.speculated65)
  br label %67

67:                                               ; preds = %43, %54
  %.1116 = phi i32 [ %.sroa.speculated62, %54 ], [ %.0115124, %43 ]
  %68 = icmp samesign ult i64 %indvars.iv130, 6
  br i1 %68, label %43, label %69, !llvm.loop !70

69:                                               ; preds = %67
  %70 = xor i32 %.1116, -1
  call void @llvm.lifetime.end.p0(i64 26, ptr nonnull %4) #11
  ret i32 %70
}